target datalayout = "e-m:e-p270:32:32-p271:32:32-p272:64:64-i64:64-i128:128-f80:128-n8:16:32:64-S128"
target triple = "x86_64-pc-linux-gnu"

; Function Attrs: mustprogress nounwind uwtable
define noundef i32 @_Z18CalcMultiContractsii(i32 noundef %0, i32 noundef %1) #4 {
  %3 = alloca i32, align 4
  %4 = alloca i32, align 4
  %5 = alloca i32, align 4
  store i32 %0, ptr %3, align 4
  store i32 %1, ptr %4, align 4
  %6 = load i32, ptr %4, align 4
  %7 = sub nsw i32 %6, 6
  switch i32 %7, label %57 [
    i32 5, label %8
    i32 4, label %24
    i32 3, label %40
    i32 2, label %51
  ]

8:                                                ; preds = %2
  %9 = load i32, ptr %3, align 4
  %10 = icmp eq i32 %9, 3
  br i1 %10, label %11, label %12

11:                                               ; preds = %8
  store i32 2345, ptr %5, align 4
  br label %23

12:                                               ; preds = %8
  %13 = load i32, ptr %3, align 4
  %14 = icmp eq i32 %13, 2
  br i1 %14, label %15, label %16

15:                                               ; preds = %12
  store i32 345, ptr %5, align 4
  br label %22

16:                                               ; preds = %12
  %17 = load i32, ptr %3, align 4
  %18 = icmp eq i32 %17, 1
  br i1 %18, label %19, label %20

19:                                               ; preds = %16
  store i32 45, ptr %5, align 4
  br label %21

20:                                               ; preds = %16
  store i32 5, ptr %5, align 4
  br label %21

21:                                               ; preds = %20, %19
  br label %22

22:                                               ; preds = %21, %15
  br label %23

23:                                               ; preds = %22, %11
  br label %60

24:                                               ; preds = %2
  %25 = load i32, ptr %3, align 4
  %26 = icmp eq i32 %25, 3
  br i1 %26, label %27, label %28

27:                                               ; preds = %24
  store i32 1234, ptr %5, align 4
  br label %39

28:                                               ; preds = %24
  %29 = load i32, ptr %3, align 4
  %30 = icmp eq i32 %29, 2
  br i1 %30, label %31, label %32

31:                                               ; preds = %28
  store i32 234, ptr %5, align 4
  br label %38

32:                                               ; preds = %28
  %33 = load i32, ptr %3, align 4
  %34 = icmp eq i32 %33, 1
  br i1 %34, label %35, label %36

35:                                               ; preds = %32
  store i32 34, ptr %5, align 4
  br label %37

36:                                               ; preds = %32
  store i32 4, ptr %5, align 4
  br label %37

37:                                               ; preds = %36, %35
  br label %38

38:                                               ; preds = %37, %31
  br label %39

39:                                               ; preds = %38, %27
  br label %60

40:                                               ; preds = %2
  %41 = load i32, ptr %3, align 4
  %42 = icmp eq i32 %41, 2
  br i1 %42, label %43, label %44

43:                                               ; preds = %40
  store i32 123, ptr %5, align 4
  br label %50

44:                                               ; preds = %40
  %45 = load i32, ptr %3, align 4
  %46 = icmp eq i32 %45, 1
  br i1 %46, label %47, label %48

47:                                               ; preds = %44
  store i32 23, ptr %5, align 4
  br label %49

48:                                               ; preds = %44
  store i32 3, ptr %5, align 4
  br label %49

49:                                               ; preds = %48, %47
  br label %50

50:                                               ; preds = %49, %43
  br label %60

51:                                               ; preds = %2
  %52 = load i32, ptr %3, align 4
  %53 = icmp eq i32 %52, 1
  br i1 %53, label %54, label %55

54:                                               ; preds = %51
  store i32 12, ptr %5, align 4
  br label %56

55:                                               ; preds = %51
  store i32 2, ptr %5, align 4
  br label %56

56:                                               ; preds = %55, %54
  br label %60

57:                                               ; preds = %2
  %58 = load i32, ptr %4, align 4
  %59 = sub nsw i32 %58, 6
  store i32 %59, ptr %5, align 4
  br label %60

60:                                               ; preds = %57, %56, %50, %39, %23
  %61 = load i32, ptr %5, align 4
  ret i32 %61
}