; Function Attrs: mustprogress nofree norecurse nosync nounwind willreturn memory(none) uwtable
define noundef range(i32 -2147483648, 2147483642) i32 @_Z18CalcMultiContractsii(i32 noundef %0, i32 noundef %1) local_unnamed_addr #7 {
  switch i32 %1, label %10 [
    i32 11, label %3
    i32 10, label %5
    i32 9, label %7
    i32 8, label %8
  ]

3:                                                ; preds = %2
  %switch.tableidx = add i32 %0, -1
  %4 = icmp ult i32 %switch.tableidx, 3
  br i1 %4, label %switch.lookup, label %14

5:                                                ; preds = %2
  %switch.tableidx16 = add i32 %0, -1
  %6 = icmp ult i32 %switch.tableidx16, 3
  br i1 %6, label %switch.lookup15, label %14

7:                                                ; preds = %2
  %switch.selectcmp = icmp eq i32 %0, 1
  %switch.select = select i1 %switch.selectcmp, i32 23, i32 3
  %switch.selectcmp13 = icmp eq i32 %0, 2
  %switch.select14 = select i1 %switch.selectcmp13, i32 123, i32 %switch.select
  br label %14

8:                                                ; preds = %2
  %9 = icmp eq i32 %0, 1
  %. = select i1 %9, i32 12, i32 2
  br label %14

10:                                               ; preds = %2
  %11 = add nsw i32 %1, -6
  br label %14

switch.lookup:                                    ; preds = %3
  %12 = zext nneg i32 %switch.tableidx to i64
  %switch.gep = getelementptr inbounds nuw [3 x i32], ptr @switch.table._Z18CalcMultiContractsii, i64 0, i64 %12
  %switch.load = load i32, ptr %switch.gep, align 4
  br label %14

switch.lookup15:                                  ; preds = %5
  %13 = zext nneg i32 %switch.tableidx16 to i64
  %switch.gep17 = getelementptr inbounds nuw [3 x i32], ptr @switch.table._Z18CalcMultiContractsii.2, i64 0, i64 %13
  %switch.load18 = load i32, ptr %switch.gep17, align 4
  br label %14

14:                                               ; preds = %5, %switch.lookup15, %3, %switch.lookup, %7, %8, %10
  %.0 = phi i32 [ %11, %10 ], [ %., %8 ], [ %switch.select14, %7 ], [ %switch.load, %switch.lookup ], [ 5, %3 ], [ %switch.load18, %switch.lookup15 ], [ 4, %5 ]
  ret i32 %.0
}